target datalayout = "e-m:e-p270:32:32-p271:32:32-p272:64:64-i64:64-i128:128-f80:128-n8:16:32:64-S128"
target triple = "x86_64-pc-linux-gnu"

%struct._zend_executor_globals = type { %struct._zval_struct, %struct._zval_struct, [32 x ptr], ptr, ptr, %struct._zend_array, %struct._zend_array, ptr, i32, i32, ptr, ptr, ptr, ptr, ptr, ptr, i64, ptr, ptr, i32, i32, i64, i32, i32, i32, i8, i8, %struct.zend_atomic_bool_s, %struct.zend_atomic_bool_s, ptr, i64, ptr, ptr, %struct._zend_array, %struct._zend_array, i32, i8, %struct._zval_struct, %struct._zval_struct, %struct._zend_stack, %struct._zend_stack, %struct._zend_stack, ptr, i32, i32, i64, ptr, ptr, ptr, %struct._zend_objects_store, ptr, ptr, ptr, [3 x %struct._zend_op], ptr, i8, i8, i64, i32, i32, ptr, [16 x %struct._HashTableIterator], ptr, %union._zend_function, %struct._zend_op, %struct._zend_array, i64, %struct.zend_get_gc_buffer, ptr, ptr, ptr, i64, i8, i32, ptr, ptr, i64, %struct._zend_call_stack, i64, i64, [6 x ptr] }
%struct.zend_atomic_bool_s = type { i8 }
%struct._zval_struct = type { %union._zend_value, %union.anon, %union.anon.2 }
%union._zend_value = type { i64 }
%union.anon = type { i32 }
%union.anon.2 = type { i32 }
%struct._zend_stack = type { i32, i32, i32, ptr }
%struct._zend_objects_store = type { ptr, i32, i32, i32 }
%struct._HashTableIterator = type { ptr, i32, i32 }
%union._zend_function = type { %struct._zend_op_array }
%struct._zend_op_array = type { i8, [3 x i8], i32, ptr, ptr, ptr, i32, i32, ptr, ptr, ptr, ptr, i32, i32, i32, i32, ptr, ptr, ptr, ptr, ptr, i32, i32, ptr, ptr, ptr, i32, i32, i32, i32, ptr, ptr, [6 x ptr] }
%struct._zend_op = type { ptr, %union._znode_op, %union._znode_op, %union._znode_op, i32, i32, i8, i8, i8, i8 }
%union._znode_op = type { i32 }
%struct._zend_array = type { %struct._zend_refcounted_h, %union.anon.4, i32, %union.anon.6, i32, i32, i32, i32, i64, ptr }
%struct._zend_refcounted_h = type { i32, %union.anon.3 }
%union.anon.3 = type { i32 }
%union.anon.4 = type { i32 }
%union.anon.6 = type { ptr }
%struct.zend_get_gc_buffer = type { ptr, ptr, ptr }
%struct._zend_call_stack = type { ptr, i64 }
%struct._spl_ptr_heap = type { ptr, ptr, ptr, ptr, i32, i32, i64, i64 }

@executor_globals = external global %struct._zend_executor_globals, align 8

; Function Attrs: nounwind uwtable
define internal void @spl_ptr_heap_insert(ptr noundef %0, ptr noundef %1, ptr noundef %2) #0 {
  %4 = alloca ptr, align 8
  %5 = alloca ptr, align 8
  %6 = alloca ptr, align 8
  %7 = alloca ptr, align 8
  %8 = alloca ptr, align 8
  %9 = alloca ptr, align 8
  %10 = alloca ptr, align 8
  %11 = alloca i64, align 8
  %12 = alloca ptr, align 8
  %13 = alloca i64, align 8
  %14 = alloca ptr, align 8
  %15 = alloca i64, align 8
  %16 = alloca ptr, align 8
  %17 = alloca i64, align 8
  %18 = alloca ptr, align 8
  %19 = alloca ptr, align 8
  %20 = alloca ptr, align 8
  %21 = alloca i32, align 4
  %22 = alloca i64, align 8
  store ptr %0, ptr %18, align 8
  store ptr %1, ptr %19, align 8
  store ptr %2, ptr %20, align 8
  %23 = load ptr, ptr %18, align 8
  %24 = getelementptr inbounds %struct._spl_ptr_heap, ptr %23, i32 0, i32 4
  %25 = load i32, ptr %24, align 8
  %26 = add nsw i32 %25, 1
  %27 = sext i32 %26 to i64
  %28 = load ptr, ptr %18, align 8
  %29 = getelementptr inbounds %struct._spl_ptr_heap, ptr %28, i32 0, i32 6
  %30 = load i64, ptr %29, align 8
  %31 = icmp ugt i64 %27, %30
  br i1 %31, label %32, label %57

32:                                               ; preds = %3
  %33 = load ptr, ptr %18, align 8
  %34 = getelementptr inbounds %struct._spl_ptr_heap, ptr %33, i32 0, i32 6
  %35 = load i64, ptr %34, align 8
  %36 = load ptr, ptr %18, align 8
  %37 = getelementptr inbounds %struct._spl_ptr_heap, ptr %36, i32 0, i32 7
  %38 = load i64, ptr %37, align 8
  %39 = mul i64 %35, %38
  store i64 %39, ptr %22, align 8
  %40 = load ptr, ptr %18, align 8
  %41 = getelementptr inbounds %struct._spl_ptr_heap, ptr %40, i32 0, i32 0
  %42 = load ptr, ptr %41, align 8
  %43 = load i64, ptr %22, align 8
  %44 = call ptr @_safe_erealloc(ptr noundef %42, i64 noundef 2, i64 noundef %43, i64 noundef 0)
  %45 = load ptr, ptr %18, align 8
  %46 = getelementptr inbounds %struct._spl_ptr_heap, ptr %45, i32 0, i32 0
  store ptr %44, ptr %46, align 8
  %47 = load ptr, ptr %18, align 8
  %48 = getelementptr inbounds %struct._spl_ptr_heap, ptr %47, i32 0, i32 0
  %49 = load ptr, ptr %48, align 8
  %50 = load i64, ptr %22, align 8
  %51 = getelementptr inbounds i8, ptr %49, i64 %50
  %52 = load i64, ptr %22, align 8
  call void @llvm.memset.p0.i64(ptr align 1 %51, i8 0, i64 %52, i1 false)
  %53 = load ptr, ptr %18, align 8
  %54 = getelementptr inbounds %struct._spl_ptr_heap, ptr %53, i32 0, i32 6
  %55 = load i64, ptr %54, align 8
  %56 = mul i64 %55, 2
  store i64 %56, ptr %54, align 8
  br label %57

57:                                               ; preds = %32, %3
  %58 = load ptr, ptr %18, align 8
  %59 = getelementptr inbounds %struct._spl_ptr_heap, ptr %58, i32 0, i32 4
  %60 = load i32, ptr %59, align 8
  store i32 %60, ptr %21, align 4
  br label %61

61:                                               ; preds = %128, %57
  %62 = load i32, ptr %21, align 4
  %63 = icmp sgt i32 %62, 0
  br i1 %63, label %64, label %85

64:                                               ; preds = %61
  %65 = load ptr, ptr %18, align 8
  %66 = getelementptr inbounds %struct._spl_ptr_heap, ptr %65, i32 0, i32 3
  %67 = load ptr, ptr %66, align 8
  %68 = load ptr, ptr %18, align 8
  %69 = load i32, ptr %21, align 4
  %70 = sub nsw i32 %69, 1
  %71 = sdiv i32 %70, 2
  %72 = sext i32 %71 to i64
  store ptr %68, ptr %10, align 8
  store i64 %72, ptr %11, align 8
  %73 = load ptr, ptr %10, align 8
  %74 = load ptr, ptr %73, align 8
  %75 = load ptr, ptr %10, align 8
  %76 = getelementptr inbounds %struct._spl_ptr_heap, ptr %75, i32 0, i32 7
  %77 = load i64, ptr %76, align 8
  %78 = load i64, ptr %11, align 8
  %79 = mul i64 %77, %78
  %80 = getelementptr inbounds i8, ptr %74, i64 %79
  %81 = load ptr, ptr %19, align 8
  %82 = load ptr, ptr %20, align 8
  %83 = call i32 %67(ptr noundef %80, ptr noundef %81, ptr noundef %82)
  %84 = icmp slt i32 %83, 0
  br label %85

85:                                               ; preds = %64, %61
  %86 = phi i1 [ false, %61 ], [ %84, %64 ]
  br i1 %86, label %87, label %132

87:                                               ; preds = %85
  %88 = load ptr, ptr %18, align 8
  %89 = load ptr, ptr %18, align 8
  %90 = load i32, ptr %21, align 4
  %91 = sext i32 %90 to i64
  store ptr %89, ptr %12, align 8
  store i64 %91, ptr %13, align 8
  %92 = load ptr, ptr %12, align 8
  %93 = load ptr, ptr %92, align 8
  %94 = load ptr, ptr %12, align 8
  %95 = getelementptr inbounds %struct._spl_ptr_heap, ptr %94, i32 0, i32 7
  %96 = load i64, ptr %95, align 8
  %97 = load i64, ptr %13, align 8
  %98 = mul i64 %96, %97
  %99 = getelementptr inbounds i8, ptr %93, i64 %98
  %100 = load ptr, ptr %18, align 8
  %101 = load i32, ptr %21, align 4
  %102 = sub nsw i32 %101, 1
  %103 = sdiv i32 %102, 2
  %104 = sext i32 %103 to i64
  store ptr %100, ptr %14, align 8
  store i64 %104, ptr %15, align 8
  %105 = load ptr, ptr %14, align 8
  %106 = load ptr, ptr %105, align 8
  %107 = load ptr, ptr %14, align 8
  %108 = getelementptr inbounds %struct._spl_ptr_heap, ptr %107, i32 0, i32 7
  %109 = load i64, ptr %108, align 8
  %110 = load i64, ptr %15, align 8
  %111 = mul i64 %109, %110
  %112 = getelementptr inbounds i8, ptr %106, i64 %111
  store ptr %88, ptr %4, align 8
  store ptr %99, ptr %5, align 8
  store ptr %112, ptr %6, align 8
  %113 = load ptr, ptr %4, align 8
  %114 = getelementptr inbounds %struct._spl_ptr_heap, ptr %113, i32 0, i32 7
  %115 = load i64, ptr %114, align 8
  %116 = icmp eq i64 %115, 32
  br i1 %116, label %117, label %120

117:                                              ; preds = %87
  %118 = load ptr, ptr %5, align 8
  %119 = load ptr, ptr %6, align 8
  call void @llvm.memcpy.p0.p0.i64(ptr align 1 %118, ptr align 1 %119, i64 32, i1 false)
  br label %127

120:                                              ; preds = %87
  %121 = load ptr, ptr %4, align 8
  %122 = getelementptr inbounds %struct._spl_ptr_heap, ptr %121, i32 0, i32 7
  %123 = load i64, ptr %122, align 8
  %124 = icmp eq i64 %123, 16
  call void @llvm.assume(i1 %124)
  %125 = load ptr, ptr %5, align 8
  %126 = load ptr, ptr %6, align 8
  call void @llvm.memcpy.p0.p0.i64(ptr align 1 %125, ptr align 1 %126, i64 16, i1 false)
  br label %127

127:                                              ; preds = %120, %117
  br label %128

128:                                              ; preds = %127
  %129 = load i32, ptr %21, align 4
  %130 = sub nsw i32 %129, 1
  %131 = sdiv i32 %130, 2
  store i32 %131, ptr %21, align 4
  br label %61

132:                                              ; preds = %85
  %133 = load ptr, ptr %18, align 8
  %134 = getelementptr inbounds %struct._spl_ptr_heap, ptr %133, i32 0, i32 4
  %135 = load i32, ptr %134, align 8
  %136 = add nsw i32 %135, 1
  store i32 %136, ptr %134, align 8
  %137 = load ptr, ptr getelementptr inbounds (%struct._zend_executor_globals, ptr @executor_globals, i32 0, i32 50), align 8
  %138 = icmp ne ptr %137, null
  br i1 %138, label %139, label %144

139:                                              ; preds = %132
  %140 = load ptr, ptr %18, align 8
  %141 = getelementptr inbounds %struct._spl_ptr_heap, ptr %140, i32 0, i32 5
  %142 = load i32, ptr %141, align 4
  %143 = or i32 %142, 1
  store i32 %143, ptr %141, align 4
  br label %144

144:                                              ; preds = %139, %132
  %145 = load ptr, ptr %18, align 8
  %146 = load ptr, ptr %18, align 8
  %147 = load i32, ptr %21, align 4
  %148 = sext i32 %147 to i64
  store ptr %146, ptr %16, align 8
  store i64 %148, ptr %17, align 8
  %149 = load ptr, ptr %16, align 8
  %150 = load ptr, ptr %149, align 8
  %151 = load ptr, ptr %16, align 8
  %152 = getelementptr inbounds %struct._spl_ptr_heap, ptr %151, i32 0, i32 7
  %153 = load i64, ptr %152, align 8
  %154 = load i64, ptr %17, align 8
  %155 = mul i64 %153, %154
  %156 = getelementptr inbounds i8, ptr %150, i64 %155
  %157 = load ptr, ptr %19, align 8
  store ptr %145, ptr %7, align 8
  store ptr %156, ptr %8, align 8
  store ptr %157, ptr %9, align 8
  %158 = load ptr, ptr %7, align 8
  %159 = getelementptr inbounds %struct._spl_ptr_heap, ptr %158, i32 0, i32 7
  %160 = load i64, ptr %159, align 8
  %161 = icmp eq i64 %160, 32
  br i1 %161, label %162, label %165

162:                                              ; preds = %144
  %163 = load ptr, ptr %8, align 8
  %164 = load ptr, ptr %9, align 8
  call void @llvm.memcpy.p0.p0.i64(ptr align 1 %163, ptr align 1 %164, i64 32, i1 false)
  br label %172

165:                                              ; preds = %144
  %166 = load ptr, ptr %7, align 8
  %167 = getelementptr inbounds %struct._spl_ptr_heap, ptr %166, i32 0, i32 7
  %168 = load i64, ptr %167, align 8
  %169 = icmp eq i64 %168, 16
  call void @llvm.assume(i1 %169)
  %170 = load ptr, ptr %8, align 8
  %171 = load ptr, ptr %9, align 8
  call void @llvm.memcpy.p0.p0.i64(ptr align 1 %170, ptr align 1 %171, i64 16, i1 false)
  br label %172

172:                                              ; preds = %165, %162
  ret void
}