; Function Attrs: nounwind uwtable
define internal fastcc void @spl_ptr_heap_insert(ptr nocapture noundef %0, ptr noundef %1, ptr noundef %2) unnamed_addr #0 {
  %4 = getelementptr inbounds i8, ptr %0, i64 32
  %5 = load i32, ptr %4, align 8
  %6 = add nsw i32 %5, 1
  %7 = sext i32 %6 to i64
  %8 = getelementptr inbounds i8, ptr %0, i64 40
  %9 = load i64, ptr %8, align 8
  %10 = icmp ult i64 %9, %7
  br i1 %10, label %11, label %20

11:                                               ; preds = %3
  %12 = getelementptr inbounds i8, ptr %0, i64 48
  %13 = load i64, ptr %12, align 8
  %14 = mul i64 %13, %9
  %15 = load ptr, ptr %0, align 8
  %16 = tail call ptr @_safe_erealloc(ptr noundef %15, i64 noundef 2, i64 noundef %14, i64 noundef 0) #14
  store ptr %16, ptr %0, align 8
  %17 = getelementptr inbounds i8, ptr %16, i64 %14
  tail call void @llvm.memset.p0.i64(ptr align 1 %17, i8 0, i64 %14, i1 false)
  %18 = load i64, ptr %8, align 8
  %19 = shl i64 %18, 1
  store i64 %19, ptr %8, align 8
  %.pre = load i32, ptr %4, align 8
  br label %20

20:                                               ; preds = %11, %3
  %21 = phi i32 [ %.pre, %11 ], [ %5, %3 ]
  %22 = getelementptr inbounds i8, ptr %0, i64 24
  %23 = icmp sgt i32 %21, 0
  br i1 %23, label %.lr.ph, label %.critedge

.lr.ph:                                           ; preds = %20
  %24 = getelementptr inbounds i8, ptr %0, i64 48
  br label %25

25:                                               ; preds = %.lr.ph, %48
  %.056 = phi i32 [ %21, %.lr.ph ], [ %28, %48 ]
  %26 = load ptr, ptr %22, align 8
  %27 = add nsw i32 %.056, -1
  %28 = lshr i32 %27, 1
  %29 = zext nneg i32 %28 to i64
  %30 = load ptr, ptr %0, align 8
  %31 = load i64, ptr %24, align 8
  %32 = mul i64 %31, %29
  %33 = getelementptr inbounds i8, ptr %30, i64 %32
  %34 = tail call i32 %26(ptr noundef %33, ptr noundef %1, ptr noundef %2) #14
  %35 = icmp slt i32 %34, 0
  br i1 %35, label %36, label %.critedge.loopexit

36:                                               ; preds = %25
  %37 = zext nneg i32 %.056 to i64
  %38 = load ptr, ptr %0, align 8
  %39 = load i64, ptr %24, align 8
  %40 = mul i64 %39, %37
  %41 = getelementptr inbounds i8, ptr %38, i64 %40
  %42 = mul i64 %39, %29
  %43 = getelementptr inbounds i8, ptr %38, i64 %42
  %44 = icmp eq i64 %39, 32
  br i1 %44, label %45, label %46

45:                                               ; preds = %36
  tail call void @llvm.memcpy.p0.p0.i64(ptr noundef nonnull align 1 dereferenceable(32) %41, ptr noundef nonnull align 1 dereferenceable(32) %43, i64 32, i1 false)
  br label %48

46:                                               ; preds = %36
  %47 = icmp eq i64 %39, 16
  tail call void @llvm.assume(i1 %47)
  tail call void @llvm.memcpy.p0.p0.i64(ptr noundef nonnull align 1 dereferenceable(16) %41, ptr noundef nonnull align 1 dereferenceable(16) %43, i64 16, i1 false)
  br label %48

48:                                               ; preds = %45, %46
  %.not59 = icmp ult i32 %27, 2
  br i1 %.not59, label %.critedge.loopexit, label %25

.critedge.loopexit:                               ; preds = %48, %25
  %.0.lcssa.ph = phi i32 [ %.056, %25 ], [ %28, %48 ]
  %.pre60 = load i32, ptr %4, align 8
  br label %.critedge

.critedge:                                        ; preds = %.critedge.loopexit, %20
  %49 = phi i32 [ %21, %20 ], [ %.pre60, %.critedge.loopexit ]
  %.0.lcssa = phi i32 [ %21, %20 ], [ %.0.lcssa.ph, %.critedge.loopexit ]
  %50 = add nsw i32 %49, 1
  store i32 %50, ptr %4, align 8
  %51 = load ptr, ptr getelementptr inbounds (%struct._zend_executor_globals, ptr @executor_globals, i64 0, i32 50), align 8
  %.not = icmp eq ptr %51, null
  br i1 %.not, label %56, label %52

52:                                               ; preds = %.critedge
  %53 = getelementptr inbounds i8, ptr %0, i64 36
  %54 = load i32, ptr %53, align 4
  %55 = or i32 %54, 1
  store i32 %55, ptr %53, align 4
  br label %56

56:                                               ; preds = %52, %.critedge
  %57 = sext i32 %.0.lcssa to i64
  %58 = load ptr, ptr %0, align 8
  %59 = getelementptr inbounds i8, ptr %0, i64 48
  %60 = load i64, ptr %59, align 8
  %61 = mul i64 %60, %57
  %62 = getelementptr inbounds i8, ptr %58, i64 %61
  %63 = icmp eq i64 %60, 32
  br i1 %63, label %64, label %65

64:                                               ; preds = %56
  tail call void @llvm.memcpy.p0.p0.i64(ptr noundef nonnull align 1 dereferenceable(32) %62, ptr noundef nonnull align 1 dereferenceable(32) %1, i64 32, i1 false)
  br label %67

65:                                               ; preds = %56
  %66 = icmp eq i64 %60, 16
  tail call void @llvm.assume(i1 %66)
  tail call void @llvm.memcpy.p0.p0.i64(ptr noundef nonnull align 1 dereferenceable(16) %62, ptr noundef nonnull align 1 dereferenceable(16) %1, i64 16, i1 false)
  br label %67

67:                                               ; preds = %65, %64
  ret void
}